target datalayout = "e-m:e-p270:32:32-p271:32:32-p272:64:64-i64:64-f80:128-n8:16:32:64-S128"
target triple = "x86_64-pc-linux-gnu"

@.str = private unnamed_addr constant [3 x i8] c"%d\00", align 1
@.str.1 = private unnamed_addr constant [4 x i8] c"%d,\00", align 1

; Function Attrs: noinline nounwind uwtable
define dso_local void @main() #0 {
  %1 = alloca i32, align 4
  %2 = alloca [100 x i32], align 16
  %3 = alloca i32, align 4
  %4 = alloca i32, align 4
  %5 = alloca i32, align 4
  %6 = alloca i32, align 4
  %7 = alloca [100 x i32], align 16
  %8 = alloca float, align 4
  %9 = alloca [100 x float], align 16
  %10 = alloca float, align 4
  %11 = alloca float, align 4
  store i32 0, i32* %6, align 4
  store float 0.000000e+00, float* %8, align 4
  %12 = call i32 (i8*, ...) @__isoc99_scanf(i8* getelementptr inbounds ([3 x i8], [3 x i8]* @.str, i64 0, i64 0), i32* %1)
  store i32 0, i32* %3, align 4
  br label %13

13:                                               ; preds = %29, %0
  %14 = load i32, i32* %3, align 4
  %15 = load i32, i32* %1, align 4
  %16 = icmp slt i32 %14, %15
  br i1 %16, label %17, label %32

17:                                               ; preds = %13
  %18 = load i32, i32* %3, align 4
  %19 = sext i32 %18 to i64
  %20 = getelementptr inbounds [100 x i32], [100 x i32]* %2, i64 0, i64 %19
  %21 = call i32 (i8*, ...) @__isoc99_scanf(i8* getelementptr inbounds ([3 x i8], [3 x i8]* @.str, i64 0, i64 0), i32* %20)
  %22 = load float, float* %8, align 4
  %23 = load i32, i32* %3, align 4
  %24 = sext i32 %23 to i64
  %25 = getelementptr inbounds [100 x i32], [100 x i32]* %2, i64 0, i64 %24
  %26 = load i32, i32* %25, align 4
  %27 = sitofp i32 %26 to float
  %28 = fadd float %22, %27
  store float %28, float* %8, align 4
  br label %29

29:                                               ; preds = %17
  %30 = load i32, i32* %3, align 4
  %31 = add nsw i32 %30, 1
  store i32 %31, i32* %3, align 4
  br label %13

32:                                               ; preds = %13
  %33 = load float, float* %8, align 4
  %34 = load i32, i32* %1, align 4
  %35 = sitofp i32 %34 to float
  %36 = fdiv float %33, %35
  store float %36, float* %10, align 4
  store i32 0, i32* %3, align 4
  br label %37

37:                                               ; preds = %84, %32
  %38 = load i32, i32* %3, align 4
  %39 = load i32, i32* %1, align 4
  %40 = sub nsw i32 %39, 1
  %41 = icmp slt i32 %38, %40
  br i1 %41, label %42, label %87

42:                                               ; preds = %37
  store i32 0, i32* %4, align 4
  br label %43

43:                                               ; preds = %80, %42
  %44 = load i32, i32* %4, align 4
  %45 = load i32, i32* %1, align 4
  %46 = load i32, i32* %3, align 4
  %47 = sub nsw i32 %45, %46
  %48 = sub nsw i32 %47, 1
  %49 = icmp slt i32 %44, %48
  br i1 %49, label %50, label %83

50:                                               ; preds = %43
  %51 = load i32, i32* %4, align 4
  %52 = sext i32 %51 to i64
  %53 = getelementptr inbounds [100 x i32], [100 x i32]* %2, i64 0, i64 %52
  %54 = load i32, i32* %53, align 4
  %55 = load i32, i32* %4, align 4
  %56 = add nsw i32 %55, 1
  %57 = sext i32 %56 to i64
  %58 = getelementptr inbounds [100 x i32], [100 x i32]* %2, i64 0, i64 %57
  %59 = load i32, i32* %58, align 4
  %60 = icmp sgt i32 %54, %59
  br i1 %60, label %61, label %79

61:                                               ; preds = %50
  %62 = load i32, i32* %4, align 4
  %63 = sext i32 %62 to i64
  %64 = getelementptr inbounds [100 x i32], [100 x i32]* %2, i64 0, i64 %63
  %65 = load i32, i32* %64, align 4
  store i32 %65, i32* %5, align 4
  %66 = load i32, i32* %4, align 4
  %67 = add nsw i32 %66, 1
  %68 = sext i32 %67 to i64
  %69 = getelementptr inbounds [100 x i32], [100 x i32]* %2, i64 0, i64 %68
  %70 = load i32, i32* %69, align 4
  %71 = load i32, i32* %4, align 4
  %72 = sext i32 %71 to i64
  %73 = getelementptr inbounds [100 x i32], [100 x i32]* %2, i64 0, i64 %72
  store i32 %70, i32* %73, align 4
  %74 = load i32, i32* %5, align 4
  %75 = load i32, i32* %4, align 4
  %76 = add nsw i32 %75, 1
  %77 = sext i32 %76 to i64
  %78 = getelementptr inbounds [100 x i32], [100 x i32]* %2, i64 0, i64 %77
  store i32 %74, i32* %78, align 4
  br label %79

79:                                               ; preds = %61, %50
  br label %80

80:                                               ; preds = %79
  %81 = load i32, i32* %4, align 4
  %82 = add nsw i32 %81, 1
  store i32 %82, i32* %4, align 4
  br label %43

83:                                               ; preds = %43
  br label %84

84:                                               ; preds = %83
  %85 = load i32, i32* %3, align 4
  %86 = add nsw i32 %85, 1
  store i32 %86, i32* %3, align 4
  br label %37

87:                                               ; preds = %37
  store i32 0, i32* %3, align 4
  br label %88

88:                                               ; preds = %106, %87
  %89 = load i32, i32* %3, align 4
  %90 = load i32, i32* %1, align 4
  %91 = icmp slt i32 %89, %90
  br i1 %91, label %92, label %109

92:                                               ; preds = %88
  %93 = load i32, i32* %3, align 4
  %94 = sext i32 %93 to i64
  %95 = getelementptr inbounds [100 x i32], [100 x i32]* %2, i64 0, i64 %94
  %96 = load i32, i32* %95, align 4
  %97 = sitofp i32 %96 to float
  %98 = load float, float* %10, align 4
  %99 = fsub float %97, %98
  %100 = fpext float %99 to double
  %101 = call double @llvm.fabs.f64(double %100)
  %102 = fptrunc double %101 to float
  %103 = load i32, i32* %3, align 4
  %104 = sext i32 %103 to i64
  %105 = getelementptr inbounds [100 x float], [100 x float]* %9, i64 0, i64 %104
  store float %102, float* %105, align 4
  br label %106

106:                                              ; preds = %92
  %107 = load i32, i32* %3, align 4
  %108 = add nsw i32 %107, 1
  store i32 %108, i32* %3, align 4
  br label %88

109:                                              ; preds = %88
  %110 = getelementptr inbounds [100 x float], [100 x float]* %9, i64 0, i64 0
  %111 = load float, float* %110, align 16
  store float %111, float* %11, align 4
  store i32 0, i32* %3, align 4
  br label %112

112:                                              ; preds = %129, %109
  %113 = load i32, i32* %3, align 4
  %114 = load i32, i32* %1, align 4
  %115 = icmp slt i32 %113, %114
  br i1 %115, label %116, label %132

116:                                              ; preds = %112
  %117 = load i32, i32* %3, align 4
  %118 = sext i32 %117 to i64
  %119 = getelementptr inbounds [100 x float], [100 x float]* %9, i64 0, i64 %118
  %120 = load float, float* %119, align 4
  %121 = load float, float* %11, align 4
  %122 = fcmp ogt float %120, %121
  br i1 %122, label %123, label %128

123:                                              ; preds = %116
  %124 = load i32, i32* %3, align 4
  %125 = sext i32 %124 to i64
  %126 = getelementptr inbounds [100 x float], [100 x float]* %9, i64 0, i64 %125
  %127 = load float, float* %126, align 4
  store float %127, float* %11, align 4
  br label %128

128:                                              ; preds = %123, %116
  br label %129

129:                                              ; preds = %128
  %130 = load i32, i32* %3, align 4
  %131 = add nsw i32 %130, 1
  store i32 %131, i32* %3, align 4
  br label %112

132:                                              ; preds = %112
  store i32 0, i32* %3, align 4
  br label %133

133:                                              ; preds = %155, %132
  %134 = load i32, i32* %3, align 4
  %135 = load i32, i32* %1, align 4
  %136 = icmp slt i32 %134, %135
  br i1 %136, label %137, label %158

137:                                              ; preds = %133
  %138 = load i32, i32* %3, align 4
  %139 = sext i32 %138 to i64
  %140 = getelementptr inbounds [100 x float], [100 x float]* %9, i64 0, i64 %139
  %141 = load float, float* %140, align 4
  %142 = load float, float* %11, align 4
  %143 = fcmp oeq float %141, %142
  br i1 %143, label %144, label %154

144:                                              ; preds = %137
  %145 = load i32, i32* %3, align 4
  %146 = sext i32 %145 to i64
  %147 = getelementptr inbounds [100 x i32], [100 x i32]* %2, i64 0, i64 %146
  %148 = load i32, i32* %147, align 4
  %149 = load i32, i32* %6, align 4
  %150 = sext i32 %149 to i64
  %151 = getelementptr inbounds [100 x i32], [100 x i32]* %7, i64 0, i64 %150
  store i32 %148, i32* %151, align 4
  %152 = load i32, i32* %6, align 4
  %153 = add nsw i32 %152, 1
  store i32 %153, i32* %6, align 4
  br label %154

154:                                              ; preds = %144, %137
  br label %155

155:                                              ; preds = %154
  %156 = load i32, i32* %3, align 4
  %157 = add nsw i32 %156, 1
  store i32 %157, i32* %3, align 4
  br label %133

158:                                              ; preds = %133
  store i32 0, i32* %3, align 4
  br label %159

159:                                              ; preds = %170, %158
  %160 = load i32, i32* %3, align 4
  %161 = load i32, i32* %6, align 4
  %162 = sub nsw i32 %161, 1
  %163 = icmp slt i32 %160, %162
  br i1 %163, label %164, label %173

164:                                              ; preds = %159
  %165 = load i32, i32* %3, align 4
  %166 = sext i32 %165 to i64
  %167 = getelementptr inbounds [100 x i32], [100 x i32]* %7, i64 0, i64 %166
  %168 = load i32, i32* %167, align 4
  %169 = call i32 (i8*, ...) @printf(i8* getelementptr inbounds ([4 x i8], [4 x i8]* @.str.1, i64 0, i64 0), i32 %168)
  br label %170

170:                                              ; preds = %164
  %171 = load i32, i32* %3, align 4
  %172 = add nsw i32 %171, 1
  store i32 %172, i32* %3, align 4
  br label %159

173:                                              ; preds = %159
  %174 = load i32, i32* %6, align 4
  %175 = sub nsw i32 %174, 1
  %176 = sext i32 %175 to i64
  %177 = getelementptr inbounds [100 x i32], [100 x i32]* %7, i64 0, i64 %176
  %178 = load i32, i32* %177, align 4
  %179 = call i32 (i8*, ...) @printf(i8* getelementptr inbounds ([3 x i8], [3 x i8]* @.str, i64 0, i64 0), i32 %178)
  ret void
}